target datalayout = "e-m:e-p270:32:32-p271:32:32-p272:64:64-i64:64-i128:128-f80:128-n8:16:32:64-S128"
target triple = "x86_64-pc-linux-gnu"

%struct.OnigRegSetStruct = type { ptr, i32, i32, ptr, i32, i32, i32, i32, i32 }
%struct.RR = type { ptr, ptr }

; Function Attrs: nounwind uwtable
define dso_local ptr @onig_regset_get_region(ptr noundef %0, i32 noundef %1) #0 {
  %3 = alloca ptr, align 8
  %4 = alloca ptr, align 8
  %5 = alloca i32, align 4
  store ptr %0, ptr %4, align 8, !tbaa !62
  store i32 %1, ptr %5, align 4, !tbaa !9
  %6 = load i32, ptr %5, align 4, !tbaa !9
  %7 = icmp slt i32 %6, 0
  br i1 %7, label %14, label %8

8:                                                ; preds = %2
  %9 = load i32, ptr %5, align 4, !tbaa !9
  %10 = load ptr, ptr %4, align 8, !tbaa !62
  %11 = getelementptr inbounds nuw %struct.OnigRegSetStruct, ptr %10, i32 0, i32 1
  %12 = load i32, ptr %11, align 8, !tbaa !67
  %13 = icmp sge i32 %9, %12
  br i1 %13, label %14, label %15

14:                                               ; preds = %8, %2
  store ptr null, ptr %3, align 8
  br label %24

15:                                               ; preds = %8
  %16 = load ptr, ptr %4, align 8, !tbaa !62
  %17 = getelementptr inbounds nuw %struct.OnigRegSetStruct, ptr %16, i32 0, i32 0
  %18 = load ptr, ptr %17, align 8, !tbaa !72
  %19 = load i32, ptr %5, align 4, !tbaa !9
  %20 = sext i32 %19 to i64
  %21 = getelementptr inbounds %struct.RR, ptr %18, i64 %20
  %22 = getelementptr inbounds nuw %struct.RR, ptr %21, i32 0, i32 1
  %23 = load ptr, ptr %22, align 8, !tbaa !75
  store ptr %23, ptr %3, align 8
  br label %24

24:                                               ; preds = %15, %14
  %25 = load ptr, ptr %3, align 8
  ret ptr %25
}